target datalayout = "e-m:e-p270:32:32-p271:32:32-p272:64:64-i64:64-i128:128-f80:128-n8:16:32:64-S128"
target triple = "x86_64-pc-linux-gnu"

; Function Attrs: inlinehint nounwind uwtable
define internal ptr @ossl_check_const_SCT_sk_type(ptr noundef %0) #3 {
  %2 = alloca ptr, align 8
  store ptr %0, ptr %2, align 8, !tbaa !18
  %3 = load ptr, ptr %2, align 8, !tbaa !18
  ret ptr %3
}

; Function Attrs: nounwind uwtable
define i32 @SCT_LIST_validate(ptr noundef %0, ptr noundef %1) #0 {
  %3 = alloca i32, align 4
  %4 = alloca ptr, align 8
  %5 = alloca ptr, align 8
  %6 = alloca i32, align 4
  %7 = alloca i32, align 4
  %8 = alloca i32, align 4
  %9 = alloca i32, align 4
  %10 = alloca ptr, align 8
  %11 = alloca i32, align 4
  store ptr %0, ptr %4, align 8, !tbaa !18
  store ptr %1, ptr %5, align 8, !tbaa !34
  call void @llvm.lifetime.start.p0(i64 4, ptr %6) #4
  store i32 1, ptr %6, align 4, !tbaa !21
  call void @llvm.lifetime.start.p0(i64 4, ptr %7) #4
  %12 = load ptr, ptr %4, align 8, !tbaa !18
  %13 = icmp ne ptr %12, null
  br i1 %13, label %14, label %18

14:                                               ; preds = %2
  %15 = load ptr, ptr %4, align 8, !tbaa !18
  %16 = call ptr @ossl_check_const_SCT_sk_type(ptr noundef %15)
  %17 = call i32 @OPENSSL_sk_num(ptr noundef %16)
  br label %19

18:                                               ; preds = %2
  br label %19

19:                                               ; preds = %18, %14
  %20 = phi i32 [ %17, %14 ], [ 0, %18 ]
  store i32 %20, ptr %7, align 4, !tbaa !21
  call void @llvm.lifetime.start.p0(i64 4, ptr %8) #4
  store i32 0, ptr %8, align 4, !tbaa !21
  br label %21

21:                                               ; preds = %48, %19
  %22 = load i32, ptr %8, align 4, !tbaa !21
  %23 = load i32, ptr %7, align 4, !tbaa !21
  %24 = icmp slt i32 %22, %23
  br i1 %24, label %25, label %51

25:                                               ; preds = %21
  call void @llvm.lifetime.start.p0(i64 4, ptr %9) #4
  store i32 -1, ptr %9, align 4, !tbaa !21
  call void @llvm.lifetime.start.p0(i64 8, ptr %10) #4
  %26 = load ptr, ptr %4, align 8, !tbaa !18
  %27 = call ptr @ossl_check_const_SCT_sk_type(ptr noundef %26)
  %28 = load i32, ptr %8, align 4, !tbaa !21
  %29 = call ptr @OPENSSL_sk_value(ptr noundef %27, i32 noundef %28)
  store ptr %29, ptr %10, align 8, !tbaa !3
  %30 = load ptr, ptr %10, align 8, !tbaa !3
  %31 = icmp eq ptr %30, null
  br i1 %31, label %32, label %33

32:                                               ; preds = %25
  store i32 4, ptr %11, align 4
  br label %45

33:                                               ; preds = %25
  %34 = load ptr, ptr %10, align 8, !tbaa !3
  %35 = load ptr, ptr %5, align 8, !tbaa !34
  %36 = call i32 @SCT_validate(ptr noundef %34, ptr noundef %35)
  store i32 %36, ptr %9, align 4, !tbaa !21
  %37 = load i32, ptr %9, align 4, !tbaa !21
  %38 = icmp slt i32 %37, 0
  br i1 %38, label %39, label %41

39:                                               ; preds = %33
  %40 = load i32, ptr %9, align 4, !tbaa !21
  store i32 %40, ptr %3, align 4
  store i32 1, ptr %11, align 4
  br label %45

41:                                               ; preds = %33
  %42 = load i32, ptr %9, align 4, !tbaa !21
  %43 = load i32, ptr %6, align 4, !tbaa !21
  %44 = and i32 %43, %42
  store i32 %44, ptr %6, align 4, !tbaa !21
  store i32 0, ptr %11, align 4
  br label %45

45:                                               ; preds = %41, %39, %32
  call void @llvm.lifetime.end.p0(i64 8, ptr %10) #4
  call void @llvm.lifetime.end.p0(i64 4, ptr %9) #4
  %46 = load i32, ptr %11, align 4
  switch i32 %46, label %53 [
    i32 0, label %47
    i32 4, label %48
  ]

47:                                               ; preds = %45
  br label %48

48:                                               ; preds = %47, %45
  %49 = load i32, ptr %8, align 4, !tbaa !21
  %50 = add nsw i32 %49, 1
  store i32 %50, ptr %8, align 4, !tbaa !21
  br label %21, !llvm.loop !54

51:                                               ; preds = %21
  %52 = load i32, ptr %6, align 4, !tbaa !21
  store i32 %52, ptr %3, align 4
  store i32 1, ptr %11, align 4
  br label %53

53:                                               ; preds = %51, %45
  call void @llvm.lifetime.end.p0(i64 4, ptr %8) #4
  call void @llvm.lifetime.end.p0(i64 4, ptr %7) #4
  call void @llvm.lifetime.end.p0(i64 4, ptr %6) #4
  %54 = load i32, ptr %3, align 4
  ret i32 %54
}