; Function Attrs: nounwind uwtable
define range(i32 -1, 2) i32 @SCT_LIST_validate(ptr noundef %0, ptr noundef readonly captures(none) %1) local_unnamed_addr #0 {
  %.not = icmp eq ptr %0, null
  br i1 %.not, label %._crit_edge, label %3

3:                                                ; preds = %2
  %4 = tail call i32 @OPENSSL_sk_num(ptr noundef nonnull %0) #7
  %5 = icmp sgt i32 %4, 0
  br i1 %5, label %.lr.ph, label %._crit_edge

.lr.ph:                                           ; preds = %3, %12
  %.01729 = phi i32 [ %13, %12 ], [ 0, %3 ]
  %.01828 = phi i32 [ %.119.ph, %12 ], [ 1, %3 ]
  %6 = tail call ptr @OPENSSL_sk_value(ptr noundef nonnull %0, i32 noundef %.01729) #7
  %7 = icmp eq ptr %6, null
  br i1 %7, label %12, label %8

8:                                                ; preds = %.lr.ph
  %9 = tail call i32 @SCT_validate(ptr noundef nonnull %6, ptr noundef %1)
  %10 = icmp slt i32 %9, 0
  %11 = and i32 %9, %.01828
  br i1 %10, label %._crit_edge, label %12

12:                                               ; preds = %.lr.ph, %8
  %.119.ph = phi i32 [ %11, %8 ], [ %.01828, %.lr.ph ]
  %13 = add nuw nsw i32 %.01729, 1
  %exitcond.not = icmp eq i32 %13, %4
  br i1 %exitcond.not, label %._crit_edge, label %.lr.ph, !llvm.loop !37

._crit_edge:                                      ; preds = %12, %8, %2, %3
  %.2 = phi i32 [ 1, %3 ], [ 1, %2 ], [ -1, %8 ], [ %.119.ph, %12 ]
  ret i32 %.2
}